target datalayout = "e-m:e-p270:32:32-p271:32:32-p272:64:64-i64:64-i128:128-f80:128-n8:16:32:64-S128"
target triple = "x86_64-pc-linux-gnu"

%struct.sentinelRedisInstance = type { i32, ptr, ptr, i64, ptr, ptr, i64, i64, i64, i64, i64, i64, i64, i64, i64, ptr, i32, i64, i64, ptr, ptr, i32, i32, ptr, ptr, i64, i32, i32, i64, ptr, ptr, i32, i32, i64, ptr, i64, i64, i32, i64, i64, i64, i64, ptr, ptr, ptr, ptr }
%struct.instanceLink = type { i32, i32, i32, ptr, ptr, i64, i64, i64, i64, i64, i64, i64, i64 }
%struct.redisAsyncContext = type { %struct.redisContext, i32, ptr, ptr, ptr, %struct.anon.2, ptr, ptr, ptr, %struct.redisCallbackList, ptr, i64, %struct.anon.3, ptr }
%struct.redisContext = type { ptr, i32, [128 x i8], i32, i32, ptr, ptr, i32, ptr, ptr, %struct.anon.0, %struct.anon.1, ptr, i64, ptr, ptr, ptr, ptr }
%struct.anon.0 = type { ptr, ptr, i32 }
%struct.anon.1 = type { ptr }
%struct.anon.2 = type { ptr, ptr, ptr, ptr, ptr, ptr, ptr }
%struct.redisCallbackList = type { ptr, ptr }
%struct.anon.3 = type { %struct.redisCallbackList, ptr, ptr, i32 }

@.str.21 = private unnamed_addr constant [11 x i8] c"sentinel.c\00", align 1
@.str.43 = private unnamed_addr constant [23 x i8] c"ri->flags & SRI_MASTER\00", align 1
@.str.53 = private unnamed_addr constant [14 x i8] c"+reset-master\00", align 1
@.str.54 = private unnamed_addr constant [3 x i8] c"%@\00", align 1

; Function Attrs: nounwind uwtable
define dso_local void @instanceLinkCloseConnection(ptr noundef %0, ptr noundef %1) #0 {
  %3 = alloca ptr, align 8
  %4 = alloca ptr, align 8
  store ptr %0, ptr %3, align 8, !tbaa !129
  store ptr %1, ptr %4, align 8, !tbaa !145
  %5 = load ptr, ptr %4, align 8, !tbaa !145
  %6 = icmp eq ptr %5, null
  br i1 %6, label %7, label %8

7:                                                ; preds = %2
  br label %34

8:                                                ; preds = %2
  %9 = load ptr, ptr %3, align 8, !tbaa !129
  %10 = getelementptr inbounds nuw %struct.instanceLink, ptr %9, i32 0, i32 3
  %11 = load ptr, ptr %10, align 8, !tbaa !135
  %12 = load ptr, ptr %4, align 8, !tbaa !145
  %13 = icmp eq ptr %11, %12
  br i1 %13, label %14, label %19

14:                                               ; preds = %8
  %15 = load ptr, ptr %3, align 8, !tbaa !129
  %16 = getelementptr inbounds nuw %struct.instanceLink, ptr %15, i32 0, i32 3
  store ptr null, ptr %16, align 8, !tbaa !135
  %17 = load ptr, ptr %3, align 8, !tbaa !129
  %18 = getelementptr inbounds nuw %struct.instanceLink, ptr %17, i32 0, i32 2
  store i32 0, ptr %18, align 8, !tbaa !134
  br label %19

19:                                               ; preds = %14, %8
  %20 = load ptr, ptr %3, align 8, !tbaa !129
  %21 = getelementptr inbounds nuw %struct.instanceLink, ptr %20, i32 0, i32 4
  %22 = load ptr, ptr %21, align 8, !tbaa !136
  %23 = load ptr, ptr %4, align 8, !tbaa !145
  %24 = icmp eq ptr %22, %23
  br i1 %24, label %25, label %28

25:                                               ; preds = %19
  %26 = load ptr, ptr %3, align 8, !tbaa !129
  %27 = getelementptr inbounds nuw %struct.instanceLink, ptr %26, i32 0, i32 4
  store ptr null, ptr %27, align 8, !tbaa !136
  br label %28

28:                                               ; preds = %25, %19
  %29 = load ptr, ptr %4, align 8, !tbaa !145
  %30 = getelementptr inbounds nuw %struct.redisAsyncContext, ptr %29, i32 0, i32 3
  store ptr null, ptr %30, align 8, !tbaa !146
  %31 = load ptr, ptr %3, align 8, !tbaa !129
  %32 = getelementptr inbounds nuw %struct.instanceLink, ptr %31, i32 0, i32 1
  store i32 1, ptr %32, align 4, !tbaa !133
  %33 = load ptr, ptr %4, align 8, !tbaa !145
  call void @redisAsyncFree(ptr noundef %33)
  br label %34

34:                                               ; preds = %28, %7
  ret void
}

; Function Attrs: nounwind uwtable
define dso_local void @sentinelResetMaster(ptr noundef %0, i32 noundef %1) #0 {
  %3 = alloca ptr, align 8
  %4 = alloca i32, align 4
  store ptr %0, ptr %3, align 8, !tbaa !11
  store i32 %1, ptr %4, align 4, !tbaa !82
  %5 = load ptr, ptr %3, align 8, !tbaa !11
  %6 = getelementptr inbounds nuw %struct.sentinelRedisInstance, ptr %5, i32 0, i32 0
  %7 = load i32, ptr %6, align 8, !tbaa !34
  %8 = and i32 %7, 1
  %9 = icmp ne i32 %8, 0
  %10 = xor i1 %9, true
  %11 = xor i1 %10, true
  %12 = zext i1 %11 to i32
  %13 = sext i32 %12 to i64
  %14 = call i64 @llvm.expect.i64(i64 %13, i64 1)
  %15 = icmp ne i64 %14, 0
  br i1 %15, label %16, label %17

16:                                               ; preds = %2
  br label %19

17:                                               ; preds = %2
  call void @_serverAssert(ptr noundef @.str.43, ptr noundef @.str.21, i32 noundef 1513)
  call void @abort() #15
  unreachable

18:                                               ; No predecessors!
  br label %19

19:                                               ; preds = %18, %16
  %20 = load ptr, ptr %3, align 8, !tbaa !11
  %21 = getelementptr inbounds nuw %struct.sentinelRedisInstance, ptr %20, i32 0, i32 20
  %22 = load ptr, ptr %21, align 8, !tbaa !21
  call void @dictRelease(ptr noundef %22)
  %23 = call ptr @dictCreate(ptr noundef @instancesDictType)
  %24 = load ptr, ptr %3, align 8, !tbaa !11
  %25 = getelementptr inbounds nuw %struct.sentinelRedisInstance, ptr %24, i32 0, i32 20
  store ptr %23, ptr %25, align 8, !tbaa !21
  %26 = load i32, ptr %4, align 4, !tbaa !82
  %27 = and i32 %26, 1
  %28 = icmp ne i32 %27, 0
  br i1 %28, label %36, label %29

29:                                               ; preds = %19
  %30 = load ptr, ptr %3, align 8, !tbaa !11
  %31 = getelementptr inbounds nuw %struct.sentinelRedisInstance, ptr %30, i32 0, i32 19
  %32 = load ptr, ptr %31, align 8, !tbaa !13
  call void @dictRelease(ptr noundef %32)
  %33 = call ptr @dictCreate(ptr noundef @instancesDictType)
  %34 = load ptr, ptr %3, align 8, !tbaa !11
  %35 = getelementptr inbounds nuw %struct.sentinelRedisInstance, ptr %34, i32 0, i32 19
  store ptr %33, ptr %35, align 8, !tbaa !13
  br label %36

36:                                               ; preds = %29, %19
  %37 = load ptr, ptr %3, align 8, !tbaa !11
  %38 = getelementptr inbounds nuw %struct.sentinelRedisInstance, ptr %37, i32 0, i32 5
  %39 = load ptr, ptr %38, align 8, !tbaa !22
  %40 = load ptr, ptr %3, align 8, !tbaa !11
  %41 = getelementptr inbounds nuw %struct.sentinelRedisInstance, ptr %40, i32 0, i32 5
  %42 = load ptr, ptr %41, align 8, !tbaa !22
  %43 = getelementptr inbounds nuw %struct.instanceLink, ptr %42, i32 0, i32 3
  %44 = load ptr, ptr %43, align 8, !tbaa !135
  call void @instanceLinkCloseConnection(ptr noundef %39, ptr noundef %44)
  %45 = load ptr, ptr %3, align 8, !tbaa !11
  %46 = getelementptr inbounds nuw %struct.sentinelRedisInstance, ptr %45, i32 0, i32 5
  %47 = load ptr, ptr %46, align 8, !tbaa !22
  %48 = load ptr, ptr %3, align 8, !tbaa !11
  %49 = getelementptr inbounds nuw %struct.sentinelRedisInstance, ptr %48, i32 0, i32 5
  %50 = load ptr, ptr %49, align 8, !tbaa !22
  %51 = getelementptr inbounds nuw %struct.instanceLink, ptr %50, i32 0, i32 4
  %52 = load ptr, ptr %51, align 8, !tbaa !136
  call void @instanceLinkCloseConnection(ptr noundef %47, ptr noundef %52)
  %53 = load ptr, ptr %3, align 8, !tbaa !11
  %54 = getelementptr inbounds nuw %struct.sentinelRedisInstance, ptr %53, i32 0, i32 0
  %55 = load i32, ptr %54, align 8, !tbaa !34
  %56 = and i32 %55, 1
  store i32 %56, ptr %54, align 8, !tbaa !34
  %57 = load ptr, ptr %3, align 8, !tbaa !11
  %58 = getelementptr inbounds nuw %struct.sentinelRedisInstance, ptr %57, i32 0, i32 34
  %59 = load ptr, ptr %58, align 8, !tbaa !28
  %60 = icmp ne ptr %59, null
  br i1 %60, label %61, label %67

61:                                               ; preds = %36
  %62 = load ptr, ptr %3, align 8, !tbaa !11
  %63 = getelementptr inbounds nuw %struct.sentinelRedisInstance, ptr %62, i32 0, i32 34
  %64 = load ptr, ptr %63, align 8, !tbaa !28
  call void @sdsfree(ptr noundef %64)
  %65 = load ptr, ptr %3, align 8, !tbaa !11
  %66 = getelementptr inbounds nuw %struct.sentinelRedisInstance, ptr %65, i32 0, i32 34
  store ptr null, ptr %66, align 8, !tbaa !28
  br label %67

67:                                               ; preds = %61, %36
  %68 = load ptr, ptr %3, align 8, !tbaa !11
  %69 = getelementptr inbounds nuw %struct.sentinelRedisInstance, ptr %68, i32 0, i32 37
  store i32 0, ptr %69, align 8, !tbaa !193
  %70 = load ptr, ptr %3, align 8, !tbaa !11
  %71 = getelementptr inbounds nuw %struct.sentinelRedisInstance, ptr %70, i32 0, i32 38
  store i64 0, ptr %71, align 8, !tbaa !194
  %72 = load ptr, ptr %3, align 8, !tbaa !11
  %73 = getelementptr inbounds nuw %struct.sentinelRedisInstance, ptr %72, i32 0, i32 39
  store i64 0, ptr %73, align 8, !tbaa !195
  %74 = load ptr, ptr %3, align 8, !tbaa !11
  %75 = getelementptr inbounds nuw %struct.sentinelRedisInstance, ptr %74, i32 0, i32 42
  store ptr null, ptr %75, align 8, !tbaa !36
  %76 = load ptr, ptr %3, align 8, !tbaa !11
  %77 = getelementptr inbounds nuw %struct.sentinelRedisInstance, ptr %76, i32 0, i32 2
  %78 = load ptr, ptr %77, align 8, !tbaa !24
  call void @sdsfree(ptr noundef %78)
  %79 = load ptr, ptr %3, align 8, !tbaa !11
  %80 = getelementptr inbounds nuw %struct.sentinelRedisInstance, ptr %79, i32 0, i32 30
  %81 = load ptr, ptr %80, align 8, !tbaa !27
  call void @sdsfree(ptr noundef %81)
  %82 = load ptr, ptr %3, align 8, !tbaa !11
  %83 = getelementptr inbounds nuw %struct.sentinelRedisInstance, ptr %82, i32 0, i32 2
  store ptr null, ptr %83, align 8, !tbaa !24
  %84 = load ptr, ptr %3, align 8, !tbaa !11
  %85 = getelementptr inbounds nuw %struct.sentinelRedisInstance, ptr %84, i32 0, i32 30
  store ptr null, ptr %85, align 8, !tbaa !27
  %86 = call i64 @mstime()
  %87 = load ptr, ptr %3, align 8, !tbaa !11
  %88 = getelementptr inbounds nuw %struct.sentinelRedisInstance, ptr %87, i32 0, i32 5
  %89 = load ptr, ptr %88, align 8, !tbaa !22
  %90 = getelementptr inbounds nuw %struct.instanceLink, ptr %89, i32 0, i32 9
  store i64 %86, ptr %90, align 8, !tbaa !141
  %91 = load ptr, ptr %3, align 8, !tbaa !11
  %92 = getelementptr inbounds nuw %struct.sentinelRedisInstance, ptr %91, i32 0, i32 5
  %93 = load ptr, ptr %92, align 8, !tbaa !22
  %94 = getelementptr inbounds nuw %struct.instanceLink, ptr %93, i32 0, i32 10
  store i64 0, ptr %94, align 8, !tbaa !142
  %95 = call i64 @mstime()
  %96 = load ptr, ptr %3, align 8, !tbaa !11
  %97 = getelementptr inbounds nuw %struct.sentinelRedisInstance, ptr %96, i32 0, i32 5
  %98 = load ptr, ptr %97, align 8, !tbaa !22
  %99 = getelementptr inbounds nuw %struct.instanceLink, ptr %98, i32 0, i32 8
  store i64 %95, ptr %99, align 8, !tbaa !143
  %100 = call i64 @mstime()
  %101 = load ptr, ptr %3, align 8, !tbaa !11
  %102 = getelementptr inbounds nuw %struct.sentinelRedisInstance, ptr %101, i32 0, i32 5
  %103 = load ptr, ptr %102, align 8, !tbaa !22
  %104 = getelementptr inbounds nuw %struct.instanceLink, ptr %103, i32 0, i32 11
  store i64 %100, ptr %104, align 8, !tbaa !144
  %105 = call i64 @mstime()
  %106 = load ptr, ptr %3, align 8, !tbaa !11
  %107 = getelementptr inbounds nuw %struct.sentinelRedisInstance, ptr %106, i32 0, i32 17
  store i64 %105, ptr %107, align 8, !tbaa !199
  %108 = load ptr, ptr %3, align 8, !tbaa !11
  %109 = getelementptr inbounds nuw %struct.sentinelRedisInstance, ptr %108, i32 0, i32 16
  store i32 1, ptr %109, align 8, !tbaa !198
  %110 = load i32, ptr %4, align 4, !tbaa !82
  %111 = and i32 %110, 65536
  %112 = icmp ne i32 %111, 0
  br i1 %112, label %113, label %115

113:                                              ; preds = %67
  %114 = load ptr, ptr %3, align 8, !tbaa !11
  call void (i32, ptr, ptr, ptr, ...) @sentinelEvent(i32 noundef 3, ptr noundef @.str.53, ptr noundef %114, ptr noundef @.str.54)
  br label %115

115:                                              ; preds = %113, %67
  ret void
}