; Function Attrs: nounwind uwtable
define dso_local void @sentinelResetMaster(ptr noundef captures(address_is_null) %0, i32 noundef %1) local_unnamed_addr #0 {
  %3 = load i32, ptr %0, align 8, !tbaa !34
  %4 = and i32 %3, 1
  %.not = icmp eq i32 %4, 0
  br i1 %.not, label %5, label %6, !prof !144

5:                                                ; preds = %2
  tail call void @_serverAssert(ptr noundef nonnull @.str.43, ptr noundef nonnull @.str.21, i32 noundef 1513) #30
  tail call void @abort() #35
  unreachable

6:                                                ; preds = %2
  %7 = getelementptr inbounds nuw i8, ptr %0, i64 160
  %8 = load ptr, ptr %7, align 8, !tbaa !18
  tail call void @dictRelease(ptr noundef %8) #30
  %9 = tail call ptr @dictCreate(ptr noundef nonnull @instancesDictType) #30
  store ptr %9, ptr %7, align 8, !tbaa !18
  %10 = and i32 %1, 1
  %.not29 = icmp eq i32 %10, 0
  br i1 %.not29, label %11, label %15

11:                                               ; preds = %6
  %12 = getelementptr inbounds nuw i8, ptr %0, i64 152
  %13 = load ptr, ptr %12, align 8, !tbaa !5
  tail call void @dictRelease(ptr noundef %13) #30
  %14 = tail call ptr @dictCreate(ptr noundef nonnull @instancesDictType) #30
  store ptr %14, ptr %12, align 8, !tbaa !5
  br label %15

15:                                               ; preds = %11, %6
  %16 = getelementptr inbounds nuw i8, ptr %0, i64 40
  %17 = load ptr, ptr %16, align 8, !tbaa !19
  %18 = getelementptr inbounds nuw i8, ptr %17, i64 16
  %19 = load ptr, ptr %18, align 8, !tbaa !124
  %20 = icmp eq ptr %19, null
  br i1 %20, label %instanceLinkCloseConnection.exit, label %21

21:                                               ; preds = %15
  store ptr null, ptr %18, align 8, !tbaa !124
  %22 = getelementptr inbounds nuw i8, ptr %17, i64 8
  store i32 0, ptr %22, align 8, !tbaa !118
  %23 = getelementptr inbounds nuw i8, ptr %17, i64 24
  %24 = load ptr, ptr %23, align 8, !tbaa !125
  %25 = icmp eq ptr %24, %19
  br i1 %25, label %26, label %27

26:                                               ; preds = %21
  store ptr null, ptr %23, align 8, !tbaa !125
  br label %27

27:                                               ; preds = %26, %21
  %28 = getelementptr inbounds nuw i8, ptr %19, i64 288
  store ptr null, ptr %28, align 8, !tbaa !126
  %29 = getelementptr inbounds nuw i8, ptr %17, i64 4
  store i32 1, ptr %29, align 4, !tbaa !117
  tail call void @redisAsyncFree(ptr noundef nonnull %19) #30
  %.pre = load ptr, ptr %16, align 8, !tbaa !19
  br label %instanceLinkCloseConnection.exit

instanceLinkCloseConnection.exit:                 ; preds = %15, %27
  %30 = phi ptr [ %17, %15 ], [ %.pre, %27 ]
  %31 = getelementptr inbounds nuw i8, ptr %30, i64 24
  %32 = load ptr, ptr %31, align 8, !tbaa !125
  %33 = icmp eq ptr %32, null
  br i1 %33, label %instanceLinkCloseConnection.exit32, label %34

34:                                               ; preds = %instanceLinkCloseConnection.exit
  %35 = getelementptr inbounds nuw i8, ptr %30, i64 16
  %36 = load ptr, ptr %35, align 8, !tbaa !124
  %37 = icmp eq ptr %36, %32
  br i1 %37, label %38, label %40

38:                                               ; preds = %34
  store ptr null, ptr %35, align 8, !tbaa !124
  %39 = getelementptr inbounds nuw i8, ptr %30, i64 8
  store i32 0, ptr %39, align 8, !tbaa !118
  br label %40

40:                                               ; preds = %38, %34
  store ptr null, ptr %31, align 8, !tbaa !125
  %41 = getelementptr inbounds nuw i8, ptr %32, i64 288
  store ptr null, ptr %41, align 8, !tbaa !126
  %42 = getelementptr inbounds nuw i8, ptr %30, i64 4
  store i32 1, ptr %42, align 4, !tbaa !117
  tail call void @redisAsyncFree(ptr noundef nonnull %32) #30
  br label %instanceLinkCloseConnection.exit32

instanceLinkCloseConnection.exit32:               ; preds = %instanceLinkCloseConnection.exit, %40
  %43 = load i32, ptr %0, align 8, !tbaa !34
  %44 = and i32 %43, 1
  store i32 %44, ptr %0, align 8, !tbaa !34
  %45 = getelementptr inbounds nuw i8, ptr %0, i64 248
  %46 = load ptr, ptr %45, align 8, !tbaa !25
  %.not30 = icmp eq ptr %46, null
  br i1 %.not30, label %48, label %47

47:                                               ; preds = %instanceLinkCloseConnection.exit32
  tail call void @sdsfree(ptr noundef nonnull %46) #30
  store ptr null, ptr %45, align 8, !tbaa !25
  br label %48

48:                                               ; preds = %47, %instanceLinkCloseConnection.exit32
  %49 = getelementptr inbounds nuw i8, ptr %0, i64 272
  store i32 0, ptr %49, align 8, !tbaa !169
  %50 = getelementptr inbounds nuw i8, ptr %0, i64 280
  %51 = getelementptr inbounds nuw i8, ptr %0, i64 312
  store ptr null, ptr %51, align 8, !tbaa !36
  %52 = getelementptr inbounds nuw i8, ptr %0, i64 16
  tail call void @llvm.memset.p0.i64(ptr noundef nonnull align 8 dereferenceable(16) %50, i8 0, i64 16, i1 false)
  %53 = load ptr, ptr %52, align 8, !tbaa !21
  tail call void @sdsfree(ptr noundef %53) #30
  %54 = getelementptr inbounds nuw i8, ptr %0, i64 224
  %55 = load ptr, ptr %54, align 8, !tbaa !24
  tail call void @sdsfree(ptr noundef %55) #30
  store ptr null, ptr %52, align 8, !tbaa !21
  store ptr null, ptr %54, align 8, !tbaa !24
  %56 = tail call i64 @mstime() #30
  %57 = load ptr, ptr %16, align 8, !tbaa !19
  %58 = getelementptr inbounds nuw i8, ptr %57, i64 64
  store i64 %56, ptr %58, align 8, !tbaa !120
  %59 = getelementptr inbounds nuw i8, ptr %57, i64 72
  store i64 0, ptr %59, align 8, !tbaa !121
  %60 = tail call i64 @mstime() #30
  %61 = load ptr, ptr %16, align 8, !tbaa !19
  %62 = getelementptr inbounds nuw i8, ptr %61, i64 56
  store i64 %60, ptr %62, align 8, !tbaa !122
  %63 = tail call i64 @mstime() #30
  %64 = load ptr, ptr %16, align 8, !tbaa !19
  %65 = getelementptr inbounds nuw i8, ptr %64, i64 80
  store i64 %63, ptr %65, align 8, !tbaa !123
  %66 = tail call i64 @mstime() #30
  %67 = getelementptr inbounds nuw i8, ptr %0, i64 136
  store i64 %66, ptr %67, align 8, !tbaa !166
  %68 = getelementptr inbounds nuw i8, ptr %0, i64 128
  store i32 1, ptr %68, align 8, !tbaa !165
  %69 = and i32 %1, 65536
  %.not31 = icmp eq i32 %69, 0
  br i1 %.not31, label %71, label %70

70:                                               ; preds = %48
  tail call void (i32, ptr, ptr, ptr, ...) @sentinelEvent(i32 noundef 3, ptr noundef nonnull @.str.53, ptr noundef nonnull %0, ptr noundef nonnull @.str.54)
  br label %71

71:                                               ; preds = %70, %48
  ret void
}